target datalayout = "e-m:e-p270:32:32-p271:32:32-p272:64:64-i64:64-i128:128-f80:128-n8:16:32:64-S128"
target triple = "x86_64-pc-linux-gnu"

@hf_aeroscout_header = internal global i32 0, align 4
@hf_aeroscout_header_magic_number = internal global i32 0, align 4
@hf_aeroscout_request_id = internal global i32 0, align 4
@hf_aeroscout_code = internal global i32 0, align 4
@hf_aeroscout_sub_code = internal global i32 0, align 4
@hf_aeroscout_datalength = internal global i32 0, align 4
@hf_lbs_vendor_id = internal global i32 0, align 4
@hf_lbs_rsvd1 = internal global i32 0, align 4
@hf_lbs_ap_bssid = internal global i32 0, align 4
@hf_lbs_rsvd2 = internal global i32 0, align 4
@hf_lbs_rxchan = internal global i32 0, align 4
@hf_lsb_tstamp = internal global i32 0, align 4
@hf_lsb_rsvd3 = internal global i32 0, align 4
@hf_lsb_rssi = internal global i32 0, align 4
@hf_lsb_rsvd = internal global i32 0, align 4
@hf_lsb_noise_floor = internal global i32 0, align 4
@hf_lsb_rsvd4 = internal global i32 0, align 4
@hf_lsb_chan_rate = internal global i32 0, align 4
@hf_lsb_rsvd5 = internal global i32 0, align 4
@hf_lsb_wh_fc = internal global i32 0, align 4
@hf_lsb_wh_seq = internal global i32 0, align 4
@hf_lsb_rsvd6 = internal global i32 0, align 4
@hf_lsb_wh_addr2 = internal global i32 0, align 4
@hf_lsb_wh_addr3 = internal global i32 0, align 4
@hf_lsb_wh_addr4 = internal global i32 0, align 4
@hf_wassp_mu_mac = internal global i32 0, align 4
@ett_wassp_header = internal global i32 0, align 4

; Function Attrs: null_pointer_is_valid sspstrong uwtable
define internal i32 @decode_lbs_tag_header(ptr noundef %0, ptr noundef %1, i32 noundef %2) #0 {
  %4 = alloca ptr, align 8
  %5 = alloca ptr, align 8
  %6 = alloca i32, align 4
  %7 = alloca i32, align 4
  %8 = alloca ptr, align 8
  %9 = alloca ptr, align 8
  store ptr %0, ptr %4, align 8
  store ptr %1, ptr %5, align 8
  store i32 %2, ptr %6, align 4
  call void @llvm.lifetime.start.p0(i64 4, ptr %7) #6
  %10 = load i32, ptr %6, align 4
  store i32 %10, ptr %7, align 4
  call void @llvm.lifetime.start.p0(i64 8, ptr %8) #6
  call void @llvm.lifetime.start.p0(i64 8, ptr %9) #6
  %11 = load ptr, ptr %4, align 8
  %12 = load i32, ptr @hf_aeroscout_header, align 4
  %13 = load ptr, ptr %5, align 8
  %14 = load i32, ptr %7, align 4
  %15 = call ptr @proto_tree_add_item(ptr noundef %11, i32 noundef %12, ptr noundef %13, i32 noundef %14, i32 noundef 64, i32 noundef 0)
  store ptr %15, ptr %8, align 8
  %16 = load ptr, ptr %8, align 8
  %17 = load i32, ptr @ett_wassp_header, align 4
  %18 = call ptr @proto_item_add_subtree(ptr noundef %16, i32 noundef %17)
  store ptr %18, ptr %9, align 8
  %19 = load ptr, ptr %9, align 8
  %20 = load i32, ptr @hf_aeroscout_header_magic_number, align 4
  %21 = load ptr, ptr %5, align 8
  %22 = load i32, ptr %7, align 4
  %23 = call ptr @proto_tree_add_item(ptr noundef %19, i32 noundef %20, ptr noundef %21, i32 noundef %22, i32 noundef 2, i32 noundef 0)
  %24 = load i32, ptr %7, align 4
  %25 = add i32 %24, 2
  store i32 %25, ptr %7, align 4
  %26 = load ptr, ptr %9, align 8
  %27 = load i32, ptr @hf_aeroscout_request_id, align 4
  %28 = load ptr, ptr %5, align 8
  %29 = load i32, ptr %7, align 4
  %30 = call ptr @proto_tree_add_item(ptr noundef %26, i32 noundef %27, ptr noundef %28, i32 noundef %29, i32 noundef 2, i32 noundef 0)
  %31 = load i32, ptr %7, align 4
  %32 = add i32 %31, 2
  store i32 %32, ptr %7, align 4
  %33 = load ptr, ptr %9, align 8
  %34 = load i32, ptr @hf_aeroscout_code, align 4
  %35 = load ptr, ptr %5, align 8
  %36 = load i32, ptr %7, align 4
  %37 = call ptr @proto_tree_add_item(ptr noundef %33, i32 noundef %34, ptr noundef %35, i32 noundef %36, i32 noundef 1, i32 noundef 0)
  %38 = load i32, ptr %7, align 4
  %39 = add i32 %38, 1
  store i32 %39, ptr %7, align 4
  %40 = load ptr, ptr %9, align 8
  %41 = load i32, ptr @hf_aeroscout_sub_code, align 4
  %42 = load ptr, ptr %5, align 8
  %43 = load i32, ptr %7, align 4
  %44 = call ptr @proto_tree_add_item(ptr noundef %40, i32 noundef %41, ptr noundef %42, i32 noundef %43, i32 noundef 1, i32 noundef 0)
  %45 = load i32, ptr %7, align 4
  %46 = add i32 %45, 1
  store i32 %46, ptr %7, align 4
  %47 = load ptr, ptr %9, align 8
  %48 = load i32, ptr @hf_aeroscout_datalength, align 4
  %49 = load ptr, ptr %5, align 8
  %50 = load i32, ptr %7, align 4
  %51 = call ptr @proto_tree_add_item(ptr noundef %47, i32 noundef %48, ptr noundef %49, i32 noundef %50, i32 noundef 2, i32 noundef 0)
  %52 = load i32, ptr %7, align 4
  %53 = add i32 %52, 2
  store i32 %53, ptr %7, align 4
  %54 = load ptr, ptr %9, align 8
  %55 = load i32, ptr @hf_wassp_mu_mac, align 4
  %56 = load ptr, ptr %5, align 8
  %57 = load i32, ptr %7, align 4
  %58 = call ptr @proto_tree_add_item(ptr noundef %54, i32 noundef %55, ptr noundef %56, i32 noundef %57, i32 noundef 6, i32 noundef 0)
  %59 = load i32, ptr %7, align 4
  %60 = add i32 %59, 6
  store i32 %60, ptr %7, align 4
  %61 = load ptr, ptr %9, align 8
  %62 = load i32, ptr @hf_lbs_vendor_id, align 4
  %63 = load ptr, ptr %5, align 8
  %64 = load i32, ptr %7, align 4
  %65 = call ptr @proto_tree_add_item(ptr noundef %61, i32 noundef %62, ptr noundef %63, i32 noundef %64, i32 noundef 2, i32 noundef 0)
  %66 = load i32, ptr %7, align 4
  %67 = add i32 %66, 2
  store i32 %67, ptr %7, align 4
  %68 = load ptr, ptr %9, align 8
  %69 = load i32, ptr @hf_lbs_rsvd1, align 4
  %70 = load ptr, ptr %5, align 8
  %71 = load i32, ptr %7, align 4
  %72 = call ptr @proto_tree_add_item(ptr noundef %68, i32 noundef %69, ptr noundef %70, i32 noundef %71, i32 noundef 2, i32 noundef 0)
  %73 = load i32, ptr %7, align 4
  %74 = add i32 %73, 2
  store i32 %74, ptr %7, align 4
  %75 = load ptr, ptr %9, align 8
  %76 = load i32, ptr @hf_lbs_ap_bssid, align 4
  %77 = load ptr, ptr %5, align 8
  %78 = load i32, ptr %7, align 4
  %79 = call ptr @proto_tree_add_item(ptr noundef %75, i32 noundef %76, ptr noundef %77, i32 noundef %78, i32 noundef 6, i32 noundef 0)
  %80 = load i32, ptr %7, align 4
  %81 = add i32 %80, 6
  store i32 %81, ptr %7, align 4
  %82 = load ptr, ptr %9, align 8
  %83 = load i32, ptr @hf_lbs_rsvd2, align 4
  %84 = load ptr, ptr %5, align 8
  %85 = load i32, ptr %7, align 4
  %86 = call ptr @proto_tree_add_item(ptr noundef %82, i32 noundef %83, ptr noundef %84, i32 noundef %85, i32 noundef 1, i32 noundef 0)
  %87 = load i32, ptr %7, align 4
  %88 = add i32 %87, 1
  store i32 %88, ptr %7, align 4
  %89 = load ptr, ptr %9, align 8
  %90 = load i32, ptr @hf_lbs_rxchan, align 4
  %91 = load ptr, ptr %5, align 8
  %92 = load i32, ptr %7, align 4
  %93 = call ptr @proto_tree_add_item(ptr noundef %89, i32 noundef %90, ptr noundef %91, i32 noundef %92, i32 noundef 1, i32 noundef 0)
  %94 = load i32, ptr %7, align 4
  %95 = add i32 %94, 1
  store i32 %95, ptr %7, align 4
  %96 = load ptr, ptr %9, align 8
  %97 = load i32, ptr @hf_lsb_tstamp, align 4
  %98 = load ptr, ptr %5, align 8
  %99 = load i32, ptr %7, align 4
  %100 = call ptr @proto_tree_add_item(ptr noundef %96, i32 noundef %97, ptr noundef %98, i32 noundef %99, i32 noundef 4, i32 noundef 0)
  %101 = load i32, ptr %7, align 4
  %102 = add i32 %101, 4
  store i32 %102, ptr %7, align 4
  %103 = load ptr, ptr %9, align 8
  %104 = load i32, ptr @hf_lsb_rsvd3, align 4
  %105 = load ptr, ptr %5, align 8
  %106 = load i32, ptr %7, align 4
  %107 = call ptr @proto_tree_add_item(ptr noundef %103, i32 noundef %104, ptr noundef %105, i32 noundef %106, i32 noundef 2, i32 noundef 0)
  %108 = load i32, ptr %7, align 4
  %109 = add i32 %108, 2
  store i32 %109, ptr %7, align 4
  %110 = load ptr, ptr %9, align 8
  %111 = load i32, ptr @hf_lsb_rssi, align 4
  %112 = load ptr, ptr %5, align 8
  %113 = load i32, ptr %7, align 4
  %114 = call ptr @proto_tree_add_item(ptr noundef %110, i32 noundef %111, ptr noundef %112, i32 noundef %113, i32 noundef 1, i32 noundef 0)
  %115 = load i32, ptr %7, align 4
  %116 = add i32 %115, 1
  store i32 %116, ptr %7, align 4
  %117 = load ptr, ptr %9, align 8
  %118 = load i32, ptr @hf_lsb_rsvd, align 4
  %119 = load ptr, ptr %5, align 8
  %120 = load i32, ptr %7, align 4
  %121 = call ptr @proto_tree_add_item(ptr noundef %117, i32 noundef %118, ptr noundef %119, i32 noundef %120, i32 noundef 1, i32 noundef 0)
  %122 = load i32, ptr %7, align 4
  %123 = add i32 %122, 1
  store i32 %123, ptr %7, align 4
  %124 = load ptr, ptr %9, align 8
  %125 = load i32, ptr @hf_lsb_noise_floor, align 4
  %126 = load ptr, ptr %5, align 8
  %127 = load i32, ptr %7, align 4
  %128 = call ptr @proto_tree_add_item(ptr noundef %124, i32 noundef %125, ptr noundef %126, i32 noundef %127, i32 noundef 1, i32 noundef 0)
  %129 = load i32, ptr %7, align 4
  %130 = add i32 %129, 1
  store i32 %130, ptr %7, align 4
  %131 = load ptr, ptr %9, align 8
  %132 = load i32, ptr @hf_lsb_rsvd4, align 4
  %133 = load ptr, ptr %5, align 8
  %134 = load i32, ptr %7, align 4
  %135 = call ptr @proto_tree_add_item(ptr noundef %131, i32 noundef %132, ptr noundef %133, i32 noundef %134, i32 noundef 3, i32 noundef 0)
  %136 = load i32, ptr %7, align 4
  %137 = add i32 %136, 3
  store i32 %137, ptr %7, align 4
  %138 = load ptr, ptr %9, align 8
  %139 = load i32, ptr @hf_lsb_chan_rate, align 4
  %140 = load ptr, ptr %5, align 8
  %141 = load i32, ptr %7, align 4
  %142 = call ptr @proto_tree_add_item(ptr noundef %138, i32 noundef %139, ptr noundef %140, i32 noundef %141, i32 noundef 1, i32 noundef 0)
  %143 = load i32, ptr %7, align 4
  %144 = add i32 %143, 1
  store i32 %144, ptr %7, align 4
  %145 = load ptr, ptr %9, align 8
  %146 = load i32, ptr @hf_lsb_rsvd5, align 4
  %147 = load ptr, ptr %5, align 8
  %148 = load i32, ptr %7, align 4
  %149 = call ptr @proto_tree_add_item(ptr noundef %145, i32 noundef %146, ptr noundef %147, i32 noundef %148, i32 noundef 1, i32 noundef 0)
  %150 = load i32, ptr %7, align 4
  %151 = add i32 %150, 1
  store i32 %151, ptr %7, align 4
  %152 = load ptr, ptr %9, align 8
  %153 = load i32, ptr @hf_lsb_wh_addr2, align 4
  %154 = load ptr, ptr %5, align 8
  %155 = load i32, ptr %7, align 4
  %156 = call ptr @proto_tree_add_item(ptr noundef %152, i32 noundef %153, ptr noundef %154, i32 noundef %155, i32 noundef 6, i32 noundef 0)
  %157 = load i32, ptr %7, align 4
  %158 = add i32 %157, 6
  store i32 %158, ptr %7, align 4
  %159 = load ptr, ptr %9, align 8
  %160 = load i32, ptr @hf_lsb_wh_fc, align 4
  %161 = load ptr, ptr %5, align 8
  %162 = load i32, ptr %7, align 4
  %163 = call ptr @proto_tree_add_item(ptr noundef %159, i32 noundef %160, ptr noundef %161, i32 noundef %162, i32 noundef 2, i32 noundef 0)
  %164 = load i32, ptr %7, align 4
  %165 = add i32 %164, 2
  store i32 %165, ptr %7, align 4
  %166 = load ptr, ptr %9, align 8
  %167 = load i32, ptr @hf_lsb_wh_seq, align 4
  %168 = load ptr, ptr %5, align 8
  %169 = load i32, ptr %7, align 4
  %170 = call ptr @proto_tree_add_item(ptr noundef %166, i32 noundef %167, ptr noundef %168, i32 noundef %169, i32 noundef 2, i32 noundef 0)
  %171 = load i32, ptr %7, align 4
  %172 = add i32 %171, 2
  store i32 %172, ptr %7, align 4
  %173 = load ptr, ptr %9, align 8
  %174 = load i32, ptr @hf_lsb_rsvd6, align 4
  %175 = load ptr, ptr %5, align 8
  %176 = load i32, ptr %7, align 4
  %177 = call ptr @proto_tree_add_item(ptr noundef %173, i32 noundef %174, ptr noundef %175, i32 noundef %176, i32 noundef 2, i32 noundef 0)
  %178 = load i32, ptr %7, align 4
  %179 = add i32 %178, 2
  store i32 %179, ptr %7, align 4
  %180 = load ptr, ptr %9, align 8
  %181 = load i32, ptr @hf_lsb_wh_addr3, align 4
  %182 = load ptr, ptr %5, align 8
  %183 = load i32, ptr %7, align 4
  %184 = call ptr @proto_tree_add_item(ptr noundef %180, i32 noundef %181, ptr noundef %182, i32 noundef %183, i32 noundef 6, i32 noundef 0)
  %185 = load i32, ptr %7, align 4
  %186 = add i32 %185, 6
  store i32 %186, ptr %7, align 4
  %187 = load ptr, ptr %9, align 8
  %188 = load i32, ptr @hf_lsb_wh_addr4, align 4
  %189 = load ptr, ptr %5, align 8
  %190 = load i32, ptr %7, align 4
  %191 = call ptr @proto_tree_add_item(ptr noundef %187, i32 noundef %188, ptr noundef %189, i32 noundef %190, i32 noundef 6, i32 noundef 0)
  %192 = load i32, ptr %7, align 4
  %193 = add i32 %192, 6
  store i32 %193, ptr %7, align 4
  %194 = load i32, ptr %7, align 4
  call void @llvm.lifetime.end.p0(i64 8, ptr %9) #6
  call void @llvm.lifetime.end.p0(i64 8, ptr %8) #6
  call void @llvm.lifetime.end.p0(i64 4, ptr %7) #6
  ret i32 %194
}