; Function Attrs: null_pointer_is_valid sspstrong uwtable
define internal fastcc range(i32 92, 109) i32 @decode_lbs_tag_header(ptr noundef %0, ptr noundef %1, i32 noundef range(i32 28, 45) %2) unnamed_addr #0 {
  %4 = load i32, ptr @hf_aeroscout_header, align 4
  %5 = tail call ptr @proto_tree_add_item(ptr noundef %0, i32 noundef %4, ptr noundef %1, i32 noundef %2, i32 noundef 64, i32 noundef 0)
  %6 = load i32, ptr @ett_wassp_header, align 4
  %7 = tail call ptr @proto_item_add_subtree(ptr noundef %5, i32 noundef %6)
  %8 = load i32, ptr @hf_aeroscout_header_magic_number, align 4
  %9 = tail call ptr @proto_tree_add_item(ptr noundef %7, i32 noundef %8, ptr noundef %1, i32 noundef %2, i32 noundef 2, i32 noundef 0)
  %10 = add nuw nsw i32 %2, 2
  %11 = load i32, ptr @hf_aeroscout_request_id, align 4
  %12 = tail call ptr @proto_tree_add_item(ptr noundef %7, i32 noundef %11, ptr noundef %1, i32 noundef %10, i32 noundef 2, i32 noundef 0)
  %13 = add nuw nsw i32 %2, 4
  %14 = load i32, ptr @hf_aeroscout_code, align 4
  %15 = tail call ptr @proto_tree_add_item(ptr noundef %7, i32 noundef %14, ptr noundef %1, i32 noundef %13, i32 noundef 1, i32 noundef 0)
  %16 = add nuw nsw i32 %2, 5
  %17 = load i32, ptr @hf_aeroscout_sub_code, align 4
  %18 = tail call ptr @proto_tree_add_item(ptr noundef %7, i32 noundef %17, ptr noundef %1, i32 noundef %16, i32 noundef 1, i32 noundef 0)
  %19 = add nuw nsw i32 %2, 6
  %20 = load i32, ptr @hf_aeroscout_datalength, align 4
  %21 = tail call ptr @proto_tree_add_item(ptr noundef %7, i32 noundef %20, ptr noundef %1, i32 noundef %19, i32 noundef 2, i32 noundef 0)
  %22 = add nuw nsw i32 %2, 8
  %23 = load i32, ptr @hf_wassp_mu_mac, align 4
  %24 = tail call ptr @proto_tree_add_item(ptr noundef %7, i32 noundef %23, ptr noundef %1, i32 noundef %22, i32 noundef 6, i32 noundef 0)
  %25 = add nuw nsw i32 %2, 14
  %26 = load i32, ptr @hf_lbs_vendor_id, align 4
  %27 = tail call ptr @proto_tree_add_item(ptr noundef %7, i32 noundef %26, ptr noundef %1, i32 noundef %25, i32 noundef 2, i32 noundef 0)
  %28 = add nuw nsw i32 %2, 16
  %29 = load i32, ptr @hf_lbs_rsvd1, align 4
  %30 = tail call ptr @proto_tree_add_item(ptr noundef %7, i32 noundef %29, ptr noundef %1, i32 noundef %28, i32 noundef 2, i32 noundef 0)
  %31 = add nuw nsw i32 %2, 18
  %32 = load i32, ptr @hf_lbs_ap_bssid, align 4
  %33 = tail call ptr @proto_tree_add_item(ptr noundef %7, i32 noundef %32, ptr noundef %1, i32 noundef %31, i32 noundef 6, i32 noundef 0)
  %34 = add nuw nsw i32 %2, 24
  %35 = load i32, ptr @hf_lbs_rsvd2, align 4
  %36 = tail call ptr @proto_tree_add_item(ptr noundef %7, i32 noundef %35, ptr noundef %1, i32 noundef %34, i32 noundef 1, i32 noundef 0)
  %37 = add nuw nsw i32 %2, 25
  %38 = load i32, ptr @hf_lbs_rxchan, align 4
  %39 = tail call ptr @proto_tree_add_item(ptr noundef %7, i32 noundef %38, ptr noundef %1, i32 noundef %37, i32 noundef 1, i32 noundef 0)
  %40 = add nuw nsw i32 %2, 26
  %41 = load i32, ptr @hf_lsb_tstamp, align 4
  %42 = tail call ptr @proto_tree_add_item(ptr noundef %7, i32 noundef %41, ptr noundef %1, i32 noundef %40, i32 noundef 4, i32 noundef 0)
  %43 = add nuw nsw i32 %2, 30
  %44 = load i32, ptr @hf_lsb_rsvd3, align 4
  %45 = tail call ptr @proto_tree_add_item(ptr noundef %7, i32 noundef %44, ptr noundef %1, i32 noundef %43, i32 noundef 2, i32 noundef 0)
  %46 = add nuw nsw i32 %2, 32
  %47 = load i32, ptr @hf_lsb_rssi, align 4
  %48 = tail call ptr @proto_tree_add_item(ptr noundef %7, i32 noundef %47, ptr noundef %1, i32 noundef %46, i32 noundef 1, i32 noundef 0)
  %49 = add nuw nsw i32 %2, 33
  %50 = load i32, ptr @hf_lsb_rsvd, align 4
  %51 = tail call ptr @proto_tree_add_item(ptr noundef %7, i32 noundef %50, ptr noundef %1, i32 noundef %49, i32 noundef 1, i32 noundef 0)
  %52 = add nuw nsw i32 %2, 34
  %53 = load i32, ptr @hf_lsb_noise_floor, align 4
  %54 = tail call ptr @proto_tree_add_item(ptr noundef %7, i32 noundef %53, ptr noundef %1, i32 noundef %52, i32 noundef 1, i32 noundef 0)
  %55 = add nuw nsw i32 %2, 35
  %56 = load i32, ptr @hf_lsb_rsvd4, align 4
  %57 = tail call ptr @proto_tree_add_item(ptr noundef %7, i32 noundef %56, ptr noundef %1, i32 noundef %55, i32 noundef 3, i32 noundef 0)
  %58 = add nuw nsw i32 %2, 38
  %59 = load i32, ptr @hf_lsb_chan_rate, align 4
  %60 = tail call ptr @proto_tree_add_item(ptr noundef %7, i32 noundef %59, ptr noundef %1, i32 noundef %58, i32 noundef 1, i32 noundef 0)
  %61 = add nuw nsw i32 %2, 39
  %62 = load i32, ptr @hf_lsb_rsvd5, align 4
  %63 = tail call ptr @proto_tree_add_item(ptr noundef %7, i32 noundef %62, ptr noundef %1, i32 noundef %61, i32 noundef 1, i32 noundef 0)
  %64 = add nuw nsw i32 %2, 40
  %65 = load i32, ptr @hf_lsb_wh_addr2, align 4
  %66 = tail call ptr @proto_tree_add_item(ptr noundef %7, i32 noundef %65, ptr noundef %1, i32 noundef %64, i32 noundef 6, i32 noundef 0)
  %67 = add nuw nsw i32 %2, 46
  %68 = load i32, ptr @hf_lsb_wh_fc, align 4
  %69 = tail call ptr @proto_tree_add_item(ptr noundef %7, i32 noundef %68, ptr noundef %1, i32 noundef %67, i32 noundef 2, i32 noundef 0)
  %70 = add nuw nsw i32 %2, 48
  %71 = load i32, ptr @hf_lsb_wh_seq, align 4
  %72 = tail call ptr @proto_tree_add_item(ptr noundef %7, i32 noundef %71, ptr noundef %1, i32 noundef %70, i32 noundef 2, i32 noundef 0)
  %73 = add nuw nsw i32 %2, 50
  %74 = load i32, ptr @hf_lsb_rsvd6, align 4
  %75 = tail call ptr @proto_tree_add_item(ptr noundef %7, i32 noundef %74, ptr noundef %1, i32 noundef %73, i32 noundef 2, i32 noundef 0)
  %76 = add nuw nsw i32 %2, 52
  %77 = load i32, ptr @hf_lsb_wh_addr3, align 4
  %78 = tail call ptr @proto_tree_add_item(ptr noundef %7, i32 noundef %77, ptr noundef %1, i32 noundef %76, i32 noundef 6, i32 noundef 0)
  %79 = add nuw nsw i32 %2, 58
  %80 = load i32, ptr @hf_lsb_wh_addr4, align 4
  %81 = tail call ptr @proto_tree_add_item(ptr noundef %7, i32 noundef %80, ptr noundef %1, i32 noundef %79, i32 noundef 6, i32 noundef 0)
  %82 = or disjoint i32 %2, 64
  ret i32 %82
}